target datalayout = "e-m:e-p270:32:32-p271:32:32-p272:64:64-i64:64-i128:128-f80:128-n8:16:32:64-S128"
target triple = "x86_64-pc-linux-gnu"

%struct.jpeg_common_struct = type { ptr, ptr, ptr, ptr, i32, i32 }
%struct.cdjpeg_progress_mgr = type { %struct.jpeg_progress_mgr, i32, i32, i32, i32, i32 }
%struct.jpeg_progress_mgr = type { ptr, i64, i64, i32, i32 }
%struct.jpeg_decompress_struct = type { ptr, ptr, ptr, ptr, i32, i32, ptr, i32, i32, i32, i32, i32, i32, i32, double, i32, i32, i32, i32, i32, i32, i32, i32, i32, i32, i32, i32, i32, i32, i32, i32, i32, i32, ptr, i32, i32, i32, i32, i32, ptr, [4 x ptr], [4 x ptr], [4 x ptr], i32, ptr, i32, i32, [16 x i8], [16 x i8], [16 x i8], i32, i32, i8, i8, i8, i16, i16, i32, i8, i32, ptr, i32, i32, i32, i32, ptr, i32, [4 x ptr], i32, i32, i32, [10 x i32], i32, i32, i32, i32, i32, ptr, ptr, ptr, ptr, ptr, ptr, ptr, ptr, ptr, ptr, ptr }

@stderr = external global ptr, align 8
@.str.1 = private unnamed_addr constant [43 x i8] c"Scan number %d exceeds maximum scans (%u)\0A\00", align 1
@.str.2 = private unnamed_addr constant [20 x i8] c"\0DPass %d/%d: %3d%% \00", align 1
@.str.3 = private unnamed_addr constant [9 x i8] c"\0D %3d%% \00", align 1

; Function Attrs: nounwind uwtable
define internal void @progress_monitor(ptr noundef %0) #0 {
  %2 = alloca ptr, align 8
  %3 = alloca ptr, align 8
  %4 = alloca i32, align 4
  %5 = alloca i32, align 4
  %6 = alloca i32, align 4
  store ptr %0, ptr %2, align 8, !tbaa !4
  call void @llvm.lifetime.start.p0(i64 8, ptr %3) #8
  %7 = load ptr, ptr %2, align 8, !tbaa !4
  %8 = getelementptr inbounds nuw %struct.jpeg_common_struct, ptr %7, i32 0, i32 2
  %9 = load ptr, ptr %8, align 8, !tbaa !29
  store ptr %9, ptr %3, align 8, !tbaa !9
  %10 = load ptr, ptr %3, align 8, !tbaa !9
  %11 = getelementptr inbounds nuw %struct.cdjpeg_progress_mgr, ptr %10, i32 0, i32 3
  %12 = load i32, ptr %11, align 8, !tbaa !26
  %13 = icmp ne i32 %12, 0
  br i1 %13, label %14, label %36

14:                                               ; preds = %1
  %15 = load ptr, ptr %2, align 8, !tbaa !4
  %16 = getelementptr inbounds nuw %struct.jpeg_common_struct, ptr %15, i32 0, i32 4
  %17 = load i32, ptr %16, align 8, !tbaa !30
  %18 = icmp ne i32 %17, 0
  br i1 %18, label %19, label %36

19:                                               ; preds = %14
  call void @llvm.lifetime.start.p0(i64 4, ptr %4) #8
  %20 = load ptr, ptr %2, align 8, !tbaa !4
  %21 = getelementptr inbounds nuw %struct.jpeg_decompress_struct, ptr %20, i32 0, i32 35
  %22 = load i32, ptr %21, align 4, !tbaa !31
  store i32 %22, ptr %4, align 4, !tbaa !50
  %23 = load i32, ptr %4, align 4, !tbaa !50
  %24 = load ptr, ptr %3, align 8, !tbaa !9
  %25 = getelementptr inbounds nuw %struct.cdjpeg_progress_mgr, ptr %24, i32 0, i32 3
  %26 = load i32, ptr %25, align 8, !tbaa !26
  %27 = icmp sgt i32 %23, %26
  br i1 %27, label %28, label %35

28:                                               ; preds = %19
  %29 = load ptr, ptr @stderr, align 8, !tbaa !51
  %30 = load i32, ptr %4, align 4, !tbaa !50
  %31 = load ptr, ptr %3, align 8, !tbaa !9
  %32 = getelementptr inbounds nuw %struct.cdjpeg_progress_mgr, ptr %31, i32 0, i32 3
  %33 = load i32, ptr %32, align 8, !tbaa !26
  %34 = call i32 (ptr, ptr, ...) @fprintf(ptr noundef %29, ptr noundef @.str.1, i32 noundef %30, i32 noundef %33) #8
  call void @exit(i32 noundef 1) #9
  unreachable

35:                                               ; preds = %19
  call void @llvm.lifetime.end.p0(i64 4, ptr %4) #8
  br label %36

36:                                               ; preds = %35, %14, %1
  %37 = load ptr, ptr %3, align 8, !tbaa !9
  %38 = getelementptr inbounds nuw %struct.cdjpeg_progress_mgr, ptr %37, i32 0, i32 4
  %39 = load i32, ptr %38, align 4, !tbaa !27
  %40 = icmp ne i32 %39, 0
  br i1 %40, label %41, label %94

41:                                               ; preds = %36
  call void @llvm.lifetime.start.p0(i64 4, ptr %5) #8
  %42 = load ptr, ptr %3, align 8, !tbaa !9
  %43 = getelementptr inbounds nuw %struct.cdjpeg_progress_mgr, ptr %42, i32 0, i32 0
  %44 = getelementptr inbounds nuw %struct.jpeg_progress_mgr, ptr %43, i32 0, i32 4
  %45 = load i32, ptr %44, align 4, !tbaa !53
  %46 = load ptr, ptr %3, align 8, !tbaa !9
  %47 = getelementptr inbounds nuw %struct.cdjpeg_progress_mgr, ptr %46, i32 0, i32 2
  %48 = load i32, ptr %47, align 4, !tbaa !25
  %49 = add nsw i32 %45, %48
  store i32 %49, ptr %5, align 4, !tbaa !50
  call void @llvm.lifetime.start.p0(i64 4, ptr %6) #8
  %50 = load ptr, ptr %3, align 8, !tbaa !9
  %51 = getelementptr inbounds nuw %struct.cdjpeg_progress_mgr, ptr %50, i32 0, i32 0
  %52 = getelementptr inbounds nuw %struct.jpeg_progress_mgr, ptr %51, i32 0, i32 1
  %53 = load i64, ptr %52, align 8, !tbaa !54
  %54 = mul nsw i64 %53, 100
  %55 = load ptr, ptr %3, align 8, !tbaa !9
  %56 = getelementptr inbounds nuw %struct.cdjpeg_progress_mgr, ptr %55, i32 0, i32 0
  %57 = getelementptr inbounds nuw %struct.jpeg_progress_mgr, ptr %56, i32 0, i32 2
  %58 = load i64, ptr %57, align 8, !tbaa !55
  %59 = sdiv i64 %54, %58
  %60 = trunc i64 %59 to i32
  store i32 %60, ptr %6, align 4, !tbaa !50
  %61 = load i32, ptr %6, align 4, !tbaa !50
  %62 = load ptr, ptr %3, align 8, !tbaa !9
  %63 = getelementptr inbounds nuw %struct.cdjpeg_progress_mgr, ptr %62, i32 0, i32 5
  %64 = load i32, ptr %63, align 8, !tbaa !28
  %65 = icmp ne i32 %61, %64
  br i1 %65, label %66, label %93

66:                                               ; preds = %41
  %67 = load i32, ptr %6, align 4, !tbaa !50
  %68 = load ptr, ptr %3, align 8, !tbaa !9
  %69 = getelementptr inbounds nuw %struct.cdjpeg_progress_mgr, ptr %68, i32 0, i32 5
  store i32 %67, ptr %69, align 8, !tbaa !28
  %70 = load i32, ptr %5, align 4, !tbaa !50
  %71 = icmp sgt i32 %70, 1
  br i1 %71, label %72, label %86

72:                                               ; preds = %66
  %73 = load ptr, ptr @stderr, align 8, !tbaa !51
  %74 = load ptr, ptr %3, align 8, !tbaa !9
  %75 = getelementptr inbounds nuw %struct.cdjpeg_progress_mgr, ptr %74, i32 0, i32 0
  %76 = getelementptr inbounds nuw %struct.jpeg_progress_mgr, ptr %75, i32 0, i32 3
  %77 = load i32, ptr %76, align 8, !tbaa !56
  %78 = load ptr, ptr %3, align 8, !tbaa !9
  %79 = getelementptr inbounds nuw %struct.cdjpeg_progress_mgr, ptr %78, i32 0, i32 1
  %80 = load i32, ptr %79, align 8, !tbaa !24
  %81 = add nsw i32 %77, %80
  %82 = add nsw i32 %81, 1
  %83 = load i32, ptr %5, align 4, !tbaa !50
  %84 = load i32, ptr %6, align 4, !tbaa !50
  %85 = call i32 (ptr, ptr, ...) @fprintf(ptr noundef %73, ptr noundef @.str.2, i32 noundef %82, i32 noundef %83, i32 noundef %84) #8
  br label %90

86:                                               ; preds = %66
  %87 = load ptr, ptr @stderr, align 8, !tbaa !51
  %88 = load i32, ptr %6, align 4, !tbaa !50
  %89 = call i32 (ptr, ptr, ...) @fprintf(ptr noundef %87, ptr noundef @.str.3, i32 noundef %88) #8
  br label %90

90:                                               ; preds = %86, %72
  %91 = load ptr, ptr @stderr, align 8, !tbaa !51
  %92 = call i32 @fflush(ptr noundef %91)
  br label %93

93:                                               ; preds = %90, %41
  call void @llvm.lifetime.end.p0(i64 4, ptr %6) #8
  call void @llvm.lifetime.end.p0(i64 4, ptr %5) #8
  br label %94

94:                                               ; preds = %93, %36
  call void @llvm.lifetime.end.p0(i64 8, ptr %3) #8
  ret void
}