; Function Attrs: nofree nounwind uwtable
define internal void @progress_monitor(ptr noundef readonly captures(none) %0) #1 {
  %2 = getelementptr inbounds nuw i8, ptr %0, i64 16
  %3 = load ptr, ptr %2, align 8, !tbaa !21
  %4 = getelementptr inbounds nuw i8, ptr %3, i64 40
  %5 = load i32, ptr %4, align 8, !tbaa !22
  %.not = icmp eq i32 %5, 0
  br i1 %.not, label %16, label %6

6:                                                ; preds = %1
  %7 = getelementptr inbounds nuw i8, ptr %0, i64 32
  %8 = load i32, ptr %7, align 8, !tbaa !23
  %.not25 = icmp eq i32 %8, 0
  br i1 %.not25, label %16, label %9

9:                                                ; preds = %6
  %10 = getelementptr inbounds nuw i8, ptr %0, i64 172
  %11 = load i32, ptr %10, align 4, !tbaa !24
  %12 = icmp sgt i32 %11, %5
  br i1 %12, label %13, label %16

13:                                               ; preds = %9
  %14 = load ptr, ptr @stderr, align 8, !tbaa !43
  %15 = tail call i32 (ptr, ptr, ...) @fprintf(ptr noundef %14, ptr noundef nonnull @.str.1, i32 noundef %11, i32 noundef %5) #9
  tail call void @exit(i32 noundef 1) #10
  unreachable

16:                                               ; preds = %9, %6, %1
  %17 = getelementptr inbounds nuw i8, ptr %3, i64 44
  %18 = load i32, ptr %17, align 4, !tbaa !45
  %.not26 = icmp eq i32 %18, 0
  br i1 %.not26, label %50, label %19

19:                                               ; preds = %16
  %20 = getelementptr inbounds nuw i8, ptr %3, i64 28
  %21 = load i32, ptr %20, align 4, !tbaa !46
  %22 = getelementptr inbounds nuw i8, ptr %3, i64 36
  %23 = load i32, ptr %22, align 4, !tbaa !47
  %24 = add nsw i32 %23, %21
  %25 = getelementptr inbounds nuw i8, ptr %3, i64 8
  %26 = load i64, ptr %25, align 8, !tbaa !48
  %27 = mul nsw i64 %26, 100
  %28 = getelementptr inbounds nuw i8, ptr %3, i64 16
  %29 = load i64, ptr %28, align 8, !tbaa !49
  %30 = sdiv i64 %27, %29
  %31 = trunc i64 %30 to i32
  %32 = getelementptr inbounds nuw i8, ptr %3, i64 48
  %33 = load i32, ptr %32, align 8, !tbaa !20
  %.not27 = icmp eq i32 %33, %31
  br i1 %.not27, label %50, label %34

34:                                               ; preds = %19
  store i32 %31, ptr %32, align 8, !tbaa !20
  %35 = icmp sgt i32 %24, 1
  %36 = load ptr, ptr @stderr, align 8, !tbaa !43
  br i1 %35, label %37, label %45

37:                                               ; preds = %34
  %38 = getelementptr inbounds nuw i8, ptr %3, i64 24
  %39 = load i32, ptr %38, align 8, !tbaa !50
  %40 = getelementptr inbounds nuw i8, ptr %3, i64 32
  %41 = load i32, ptr %40, align 8, !tbaa !51
  %42 = add i32 %39, 1
  %43 = add i32 %42, %41
  %44 = tail call i32 (ptr, ptr, ...) @fprintf(ptr noundef %36, ptr noundef nonnull @.str.2, i32 noundef %43, i32 noundef %24, i32 noundef %31) #9
  br label %47

45:                                               ; preds = %34
  %46 = tail call i32 (ptr, ptr, ...) @fprintf(ptr noundef %36, ptr noundef nonnull @.str.3, i32 noundef %31) #9
  br label %47

47:                                               ; preds = %45, %37
  %48 = load ptr, ptr @stderr, align 8, !tbaa !43
  %49 = tail call i32 @fflush(ptr noundef %48)
  br label %50

50:                                               ; preds = %19, %47, %16
  ret void
}